target datalayout = "e-m:e-p270:32:32-p271:32:32-p272:64:64-i64:64-i128:128-f80:128-n8:16:32:64-S128"
target triple = "x86_64-pc-linux-gnu"

@gtransport = internal global ptr null, align 8
@gsecondary = internal global ptr null, align 8

; Function Attrs: nounwind uwtable
define internal void @unlock_pack(i32 noundef %0) #0 {
  %2 = alloca i32, align 4
  store i32 %0, ptr %2, align 4, !tbaa !4
  %3 = load ptr, ptr @gtransport, align 8, !tbaa !66
  %4 = icmp ne ptr %3, null
  br i1 %4, label %5, label %8

5:                                                ; preds = %1
  %6 = load ptr, ptr @gtransport, align 8, !tbaa !66
  %7 = load i32, ptr %2, align 4, !tbaa !4
  call void @transport_unlock_pack(ptr noundef %6, i32 noundef %7)
  br label %8

8:                                                ; preds = %5, %1
  %9 = load ptr, ptr @gsecondary, align 8, !tbaa !66
  %10 = icmp ne ptr %9, null
  br i1 %10, label %11, label %14

11:                                               ; preds = %8
  %12 = load ptr, ptr @gsecondary, align 8, !tbaa !66
  %13 = load i32, ptr %2, align 4, !tbaa !4
  call void @transport_unlock_pack(ptr noundef %12, i32 noundef %13)
  br label %14

14:                                               ; preds = %11, %8
  ret void
}

; Function Attrs: nounwind uwtable
define internal void @unlock_pack_on_signal(i32 noundef %0) #0 {
  %2 = alloca i32, align 4
  store i32 %0, ptr %2, align 4, !tbaa !4
  call void @unlock_pack(i32 noundef 1)
  %3 = load i32, ptr %2, align 4, !tbaa !4
  %4 = call i32 @sigchain_pop(i32 noundef %3)
  %5 = load i32, ptr %2, align 4, !tbaa !4
  %6 = call i32 @raise(i32 noundef %5) #11
  ret void
}