; Function Attrs: nounwind uwtable
define internal void @unlock_pack_on_signal(i32 noundef %0) #0 {
  %2 = load ptr, ptr @gtransport, align 8, !tbaa !68
  %.not.i = icmp eq ptr %2, null
  br i1 %.not.i, label %4, label %3

3:                                                ; preds = %1
  tail call void @transport_unlock_pack(ptr noundef nonnull %2, i32 noundef 1) #20
  br label %4

4:                                                ; preds = %3, %1
  %5 = load ptr, ptr @gsecondary, align 8, !tbaa !68
  %.not3.i = icmp eq ptr %5, null
  br i1 %.not3.i, label %unlock_pack.exit, label %6

6:                                                ; preds = %4
  tail call void @transport_unlock_pack(ptr noundef nonnull %5, i32 noundef 1) #20
  br label %unlock_pack.exit

unlock_pack.exit:                                 ; preds = %4, %6
  %7 = tail call i32 @sigchain_pop(i32 noundef %0) #20
  %8 = tail call i32 @raise(i32 noundef %0) #20
  ret void
}